target datalayout = "e-m:e-p270:32:32-p271:32:32-p272:64:64-i64:64-i128:128-f80:128-n8:16:32:64-S128"
target triple = "x86_64-pc-linux-gnu"

%struct.Aig_Obj_t_ = type { %union.anon, ptr, ptr, i64, i32, i32, %union.anon.0 }
%union.anon = type { ptr }
%union.anon.0 = type { ptr }
%struct.Fra_Sml_t_ = type { ptr, i32, i32, i32, i32, i32, i32, i32, i32, [0 x i32] }

; Function Attrs: inlinehint nounwind uwtable
define internal ptr @Fra_ObjSim(ptr noundef %0, i32 noundef %1) #2 {
  %3 = alloca ptr, align 8
  %4 = alloca i32, align 4
  store ptr %0, ptr %3, align 8, !tbaa !35
  store i32 %1, ptr %4, align 4, !tbaa !8
  %5 = load ptr, ptr %3, align 8, !tbaa !35
  %6 = getelementptr inbounds nuw %struct.Fra_Sml_t_, ptr %5, i32 0, i32 9
  %7 = getelementptr inbounds [0 x i32], ptr %6, i64 0, i64 0
  %8 = load ptr, ptr %3, align 8, !tbaa !35
  %9 = getelementptr inbounds nuw %struct.Fra_Sml_t_, ptr %8, i32 0, i32 4
  %10 = load i32, ptr %9, align 4, !tbaa !32
  %11 = load i32, ptr %4, align 4, !tbaa !8
  %12 = mul nsw i32 %10, %11
  %13 = sext i32 %12 to i64
  %14 = getelementptr inbounds i32, ptr %7, i64 %13
  ret ptr %14
}

; Function Attrs: nounwind uwtable
define void @Fra_SmlNodeTransferNext(ptr noundef %0, ptr noundef %1, ptr noundef %2, i32 noundef %3) #0 {
  %5 = alloca ptr, align 8
  %6 = alloca ptr, align 8
  %7 = alloca ptr, align 8
  %8 = alloca i32, align 4
  %9 = alloca ptr, align 8
  %10 = alloca ptr, align 8
  %11 = alloca i32, align 4
  store ptr %0, ptr %5, align 8, !tbaa !35
  store ptr %1, ptr %6, align 8, !tbaa !3
  store ptr %2, ptr %7, align 8, !tbaa !3
  store i32 %3, ptr %8, align 4, !tbaa !8
  call void @llvm.lifetime.start.p0(i64 8, ptr %9) #8
  call void @llvm.lifetime.start.p0(i64 8, ptr %10) #8
  call void @llvm.lifetime.start.p0(i64 4, ptr %11) #8
  %12 = load ptr, ptr %5, align 8, !tbaa !35
  %13 = load ptr, ptr %6, align 8, !tbaa !3
  %14 = getelementptr inbounds nuw %struct.Aig_Obj_t_, ptr %13, i32 0, i32 5
  %15 = load i32, ptr %14, align 4, !tbaa !27
  %16 = call ptr @Fra_ObjSim(ptr noundef %12, i32 noundef %15)
  %17 = load ptr, ptr %5, align 8, !tbaa !35
  %18 = getelementptr inbounds nuw %struct.Fra_Sml_t_, ptr %17, i32 0, i32 3
  %19 = load i32, ptr %18, align 8, !tbaa !92
  %20 = load i32, ptr %8, align 4, !tbaa !8
  %21 = mul nsw i32 %19, %20
  %22 = sext i32 %21 to i64
  %23 = getelementptr inbounds i32, ptr %16, i64 %22
  store ptr %23, ptr %9, align 8, !tbaa !29
  %24 = load ptr, ptr %5, align 8, !tbaa !35
  %25 = load ptr, ptr %7, align 8, !tbaa !3
  %26 = getelementptr inbounds nuw %struct.Aig_Obj_t_, ptr %25, i32 0, i32 5
  %27 = load i32, ptr %26, align 4, !tbaa !27
  %28 = call ptr @Fra_ObjSim(ptr noundef %24, i32 noundef %27)
  %29 = load ptr, ptr %5, align 8, !tbaa !35
  %30 = getelementptr inbounds nuw %struct.Fra_Sml_t_, ptr %29, i32 0, i32 3
  %31 = load i32, ptr %30, align 8, !tbaa !92
  %32 = load i32, ptr %8, align 4, !tbaa !8
  %33 = add nsw i32 %32, 1
  %34 = mul nsw i32 %31, %33
  %35 = sext i32 %34 to i64
  %36 = getelementptr inbounds i32, ptr %28, i64 %35
  store ptr %36, ptr %10, align 8, !tbaa !29
  store i32 0, ptr %11, align 4, !tbaa !8
  br label %37

37:                                               ; preds = %53, %4
  %38 = load i32, ptr %11, align 4, !tbaa !8
  %39 = load ptr, ptr %5, align 8, !tbaa !35
  %40 = getelementptr inbounds nuw %struct.Fra_Sml_t_, ptr %39, i32 0, i32 3
  %41 = load i32, ptr %40, align 8, !tbaa !92
  %42 = icmp slt i32 %38, %41
  br i1 %42, label %43, label %56

43:                                               ; preds = %37
  %44 = load ptr, ptr %9, align 8, !tbaa !29
  %45 = load i32, ptr %11, align 4, !tbaa !8
  %46 = sext i32 %45 to i64
  %47 = getelementptr inbounds i32, ptr %44, i64 %46
  %48 = load i32, ptr %47, align 4, !tbaa !8
  %49 = load ptr, ptr %10, align 8, !tbaa !29
  %50 = load i32, ptr %11, align 4, !tbaa !8
  %51 = sext i32 %50 to i64
  %52 = getelementptr inbounds i32, ptr %49, i64 %51
  store i32 %48, ptr %52, align 4, !tbaa !8
  br label %53

53:                                               ; preds = %43
  %54 = load i32, ptr %11, align 4, !tbaa !8
  %55 = add nsw i32 %54, 1
  store i32 %55, ptr %11, align 4, !tbaa !8
  br label %37, !llvm.loop !117

56:                                               ; preds = %37
  call void @llvm.lifetime.end.p0(i64 4, ptr %11) #8
  call void @llvm.lifetime.end.p0(i64 8, ptr %10) #8
  call void @llvm.lifetime.end.p0(i64 8, ptr %9) #8
  ret void
}