; Function Attrs: nofree norecurse nosync nounwind memory(argmem: readwrite) uwtable
define void @Fra_SmlNodeTransferNext(ptr noundef captures(none) %0, ptr noundef readonly captures(none) %1, ptr noundef readonly captures(none) %2, i32 noundef %3) local_unnamed_addr #9 {
  %5 = getelementptr inbounds nuw i8, ptr %1, i64 36
  %6 = load i32, ptr %5, align 4, !tbaa !22
  %7 = getelementptr inbounds nuw i8, ptr %0, i64 40
  %8 = getelementptr inbounds nuw i8, ptr %0, i64 20
  %9 = load i32, ptr %8, align 4, !tbaa !25
  %10 = mul nsw i32 %9, %6
  %11 = sext i32 %10 to i64
  %12 = getelementptr inbounds i32, ptr %7, i64 %11
  %13 = getelementptr inbounds nuw i8, ptr %0, i64 16
  %14 = load i32, ptr %13, align 8, !tbaa !83
  %15 = mul nsw i32 %14, %3
  %16 = sext i32 %15 to i64
  %17 = getelementptr inbounds i32, ptr %12, i64 %16
  %18 = getelementptr inbounds nuw i8, ptr %2, i64 36
  %19 = load i32, ptr %18, align 4, !tbaa !22
  %20 = mul nsw i32 %19, %9
  %21 = sext i32 %20 to i64
  %22 = getelementptr inbounds i32, ptr %7, i64 %21
  %23 = add nsw i32 %3, 1
  %24 = mul nsw i32 %14, %23
  %25 = sext i32 %24 to i64
  %26 = getelementptr inbounds i32, ptr %22, i64 %25
  %27 = icmp sgt i32 %14, 0
  br i1 %27, label %.lr.ph, label %._crit_edge

.lr.ph:                                           ; preds = %4, %.lr.ph
  %indvars.iv = phi i64 [ %indvars.iv.next, %.lr.ph ], [ 0, %4 ]
  %28 = getelementptr inbounds nuw i32, ptr %17, i64 %indvars.iv
  %29 = load i32, ptr %28, align 4, !tbaa !28
  %30 = getelementptr inbounds nuw i32, ptr %26, i64 %indvars.iv
  store i32 %29, ptr %30, align 4, !tbaa !28
  %indvars.iv.next = add nuw nsw i64 %indvars.iv, 1
  %31 = load i32, ptr %13, align 8, !tbaa !83
  %32 = sext i32 %31 to i64
  %33 = icmp slt i64 %indvars.iv.next, %32
  br i1 %33, label %.lr.ph, label %._crit_edge, !llvm.loop !108

._crit_edge:                                      ; preds = %.lr.ph, %4
  ret void
}